#include <math.h>
#include <stdio.h>
#include <stdlib.h>
#include <string.h>


int main()
{
    char a[10000];
    int i,s=0;
    gets(a);
    for (i=0;i<strlen(a);i++)
    {
        if (a[i]!=' ')
        s=s+1;
        else if (a[i]!=a[i-1])
        {
            printf("%d",s);
            if (i+1<strlen(a)) printf(",");
            s=0;
        }
    }
    printf("%d",s);

    return 0;
}
