; ModuleID = 'source-C-CXX/27/1834.c'
source_filename = "source-C-CXX/27/1834.c"
target datalayout = "e-m:e-p270:32:32-p271:32:32-p272:64:64-i64:64-f80:128-n8:16:32:64-S128"
target triple = "x86_64-pc-linux-gnu"

@.str = private unnamed_addr constant [3 x i8] c"%d\00", align 1

; Function Attrs: nounwind sspstrong uwtable
define dso_local i32 @main() local_unnamed_addr #0 {
  %1 = alloca [10000 x i8], align 16
  %2 = getelementptr inbounds [10000 x i8], [10000 x i8]* %1, i64 0, i64 0
  call void @llvm.lifetime.start.p0i8(i64 10000, i8* nonnull %2) #6
  %3 = call i32 (i8*, ...) bitcast (i32 (...)* @gets to i32 (i8*, ...)*)(i8* nonnull %2) #6
  %4 = load i8, i8* %2, align 16
  %5 = icmp eq i8 %4, 0
  br i1 %5, label %34, label %6

6:                                                ; preds = %0, %31
  %7 = phi i8 [ %33, %31 ], [ %4, %0 ]
  %8 = phi i64 [ %28, %31 ], [ 0, %0 ]
  %9 = phi i32 [ %27, %31 ], [ 0, %0 ]
  %10 = icmp eq i8 %7, 32
  br i1 %10, label %13, label %11

11:                                               ; preds = %6
  %12 = add nsw i32 %9, 1
  br label %26

13:                                               ; preds = %6
  %14 = add nsw i64 %8, -1
  %15 = getelementptr inbounds [10000 x i8], [10000 x i8]* %1, i64 0, i64 %14
  %16 = load i8, i8* %15, align 1, !tbaa !5
  %17 = icmp eq i8 %16, 32
  br i1 %17, label %26, label %18

18:                                               ; preds = %13
  %19 = call i32 (i8*, ...) @printf(i8* nonnull dereferenceable(1) getelementptr inbounds ([3 x i8], [3 x i8]* @.str, i64 0, i64 0), i32 %9)
  %20 = add i64 %8, 1
  %21 = and i64 %20, 4294967295
  %22 = call i64 @strlen(i8* noundef nonnull %2) #7
  %23 = icmp ugt i64 %22, %21
  br i1 %23, label %24, label %26

24:                                               ; preds = %18
  %25 = call i32 @putchar(i32 44)
  br label %26

26:                                               ; preds = %18, %24, %11, %13
  %27 = phi i32 [ %12, %11 ], [ %9, %13 ], [ 0, %24 ], [ 0, %18 ]
  %28 = add nuw i64 %8, 1
  %29 = call i64 @strlen(i8* noundef nonnull %2) #7
  %30 = icmp ugt i64 %29, %28
  br i1 %30, label %31, label %34, !llvm.loop !8

31:                                               ; preds = %26
  %32 = getelementptr inbounds [10000 x i8], [10000 x i8]* %1, i64 0, i64 %28
  %33 = load i8, i8* %32, align 1, !tbaa !5
  br label %6

34:                                               ; preds = %26, %0
  %35 = phi i32 [ 0, %0 ], [ %27, %26 ]
  %36 = call i32 (i8*, ...) @printf(i8* nonnull dereferenceable(1) getelementptr inbounds ([3 x i8], [3 x i8]* @.str, i64 0, i64 0), i32 %35)
  call void @llvm.lifetime.end.p0i8(i64 10000, i8* nonnull %2) #6
  ret i32 0
}

; Function Attrs: argmemonly mustprogress nofree nosync nounwind willreturn
declare void @llvm.lifetime.start.p0i8(i64 immarg, i8* nocapture) #1

declare i32 @gets(...) local_unnamed_addr #2

; Function Attrs: argmemonly mustprogress nofree nounwind readonly willreturn
declare i64 @strlen(i8* nocapture) local_unnamed_addr #3

; Function Attrs: nofree nounwind
declare noundef i32 @printf(i8* nocapture noundef readonly, ...) local_unnamed_addr #4

; Function Attrs: argmemonly mustprogress nofree nosync nounwind willreturn
declare void @llvm.lifetime.end.p0i8(i64 immarg, i8* nocapture) #1

; Function Attrs: nofree nounwind
declare noundef i32 @putchar(i32 noundef) local_unnamed_addr #5


!llvm.module.flags = !{!0, !1, !2, !3}
!llvm.ident = !{!4}

!0 = !{i32 1, !"wchar_size", i32 4}
!1 = !{i32 7, !"PIC Level", i32 2}
!2 = !{i32 7, !"PIE Level", i32 2}
!3 = !{i32 7, !"uwtable", i32 1}
!4 = !{!"clang version 13.0.0"}
!5 = !{!6, !6, i64 0}
!6 = !{!"omnipotent char", !7, i64 0}
!7 = !{!"Simple C/C++ TBAA"}
!8 = distinct !{!8, !9}
!9 = !{!"llvm.loop.mustprogress"}
